; Function Attrs: mustprogress nofree norecurse nosync nounwind willreturn memory(read, inaccessiblemem: none) uwtable
define { ptr, ptr } @_ZN8proxygen11HTTPMessage4trimEN5folly5RangeIPKcEE(ptr %sp.coerce0, ptr %sp.coerce1) local_unnamed_addr #12 align 2 {
entry:
  %sp.coerce016 = ptrtoint ptr %sp.coerce0 to i64
  %sp.coerce115 = ptrtoint ptr %sp.coerce1 to i64
  %cmp.i12 = icmp eq ptr %sp.coerce0, %sp.coerce1
  br i1 %cmp.i12, label %for.end, label %land.rhs.preheader

land.rhs.preheader:                               ; preds = %entry
  %0 = sub i64 %sp.coerce115, %sp.coerce016
  %scevgep = getelementptr i8, ptr %sp.coerce0, i64 %0
  br label %land.rhs

land.rhs:                                         ; preds = %land.rhs.preheader, %for.inc
  %sp.sroa.0.013 = phi ptr [ %incdec.ptr.i, %for.inc ], [ %sp.coerce0, %land.rhs.preheader ]
  %1 = load i8, ptr %sp.sroa.0.013, align 1
  %cmp = icmp eq i8 %1, 32
  br i1 %cmp, label %for.inc, label %for.end.loopexit

for.inc:                                          ; preds = %land.rhs
  %incdec.ptr.i = getelementptr inbounds i8, ptr %sp.sroa.0.013, i64 1
  %cmp.i = icmp eq ptr %incdec.ptr.i, %sp.coerce1
  br i1 %cmp.i, label %for.end.loopexit, label %land.rhs, !llvm.loop !104

for.end.loopexit:                                 ; preds = %for.inc, %land.rhs
  %sp.sroa.0.0.lcssa.ph = phi ptr [ %sp.sroa.0.013, %land.rhs ], [ %scevgep, %for.inc ]
  %.pre = ptrtoint ptr %sp.sroa.0.0.lcssa.ph to i64
  br label %for.end

for.end:                                          ; preds = %for.end.loopexit, %entry
  %sp.sroa.0.0.lcssa17.pre-phi = phi i64 [ %.pre, %for.end.loopexit ], [ %sp.coerce016, %entry ]
  %sp.sroa.0.0.lcssa = phi ptr [ %sp.sroa.0.0.lcssa.ph, %for.end.loopexit ], [ %sp.coerce0, %entry ]
  %2 = sub i64 %sp.sroa.0.0.lcssa17.pre-phi, %sp.coerce115
  %scevgep18 = getelementptr i8, ptr %sp.coerce1, i64 %2
  br label %for.cond2

for.cond2:                                        ; preds = %land.rhs4, %for.end
  %sp.sroa.7.0 = phi ptr [ %sp.coerce1, %for.end ], [ %incdec.ptr.i.i.i.i, %land.rhs4 ]
  %cmp.i2 = icmp eq ptr %sp.sroa.0.0.lcssa, %sp.sroa.7.0
  br i1 %cmp.i2, label %for.end11, label %land.rhs4

land.rhs4:                                        ; preds = %for.cond2
  %incdec.ptr.i.i.i.i = getelementptr inbounds i8, ptr %sp.sroa.7.0, i64 -1
  %3 = load i8, ptr %incdec.ptr.i.i.i.i, align 1
  %cmp7 = icmp eq i8 %3, 32
  br i1 %cmp7, label %for.cond2, label %for.end11, !llvm.loop !105

for.end11:                                        ; preds = %for.cond2, %land.rhs4
  %sp.sroa.7.0.lcssa = phi ptr [ %scevgep18, %for.cond2 ], [ %sp.sroa.7.0, %land.rhs4 ]
  %.fca.0.insert = insertvalue { ptr, ptr } poison, ptr %sp.sroa.0.0.lcssa, 0
  %.fca.1.insert = insertvalue { ptr, ptr } %.fca.0.insert, ptr %sp.sroa.7.0.lcssa, 1
  ret { ptr, ptr } %.fca.1.insert
}